target datalayout = "e-m:e-p270:32:32-p271:32:32-p272:64:64-i64:64-i128:128-f80:128-n8:16:32:64-S128"
target triple = "x86_64-unknown-linux-gnu"

; Function Attrs: nounwind uwtable
define dso_local void @evutil_monotonic_timer_free(ptr noundef %timer) #0 {
entry:
  %timer.addr = alloca ptr, align 8
  store ptr %timer, ptr %timer.addr, align 8
  %0 = load ptr, ptr %timer.addr, align 8
  %tobool = icmp ne ptr %0, null
  br i1 %tobool, label %if.then, label %if.end

if.then:                                          ; preds = %entry
  %1 = load ptr, ptr %timer.addr, align 8
  call void @event_mm_free_(ptr noundef %1)
  br label %if.end

if.end:                                           ; preds = %if.then, %entry
  ret void
}