; Function Attrs: nounwind uwtable
define dso_local void @evutil_monotonic_timer_free(ptr noundef %timer) local_unnamed_addr #1 {
entry:
  %tobool.not = icmp eq ptr %timer, null
  br i1 %tobool.not, label %if.end, label %if.then

if.then:                                          ; preds = %entry
  tail call void @event_mm_free_(ptr noundef nonnull %timer) #8
  br label %if.end

if.end:                                           ; preds = %if.then, %entry
  ret void
}